target datalayout = "e-m:e-p270:32:32-p271:32:32-p272:64:64-i64:64-i128:128-f80:128-n8:16:32:64-S128"
target triple = "x86_64-unknown-linux-gnu"

%"class.rocksdb::Slice" = type { ptr, i64 }

; Function Attrs: mustprogress nounwind uwtable
define noundef i32 @_ZN7rocksdb7fromHexEc(i8 noundef signext %c) #3 {
entry:
  %retval = alloca i32, align 4
  %c.addr = alloca i8, align 1
  store i8 %c, ptr %c.addr, align 1
  %0 = load i8, ptr %c.addr, align 1
  %conv = sext i8 %0 to i32
  %cmp = icmp sge i32 %conv, 97
  br i1 %cmp, label %land.lhs.true, label %if.end

land.lhs.true:                                    ; preds = %entry
  %1 = load i8, ptr %c.addr, align 1
  %conv1 = sext i8 %1 to i32
  %cmp2 = icmp sle i32 %conv1, 102
  br i1 %cmp2, label %if.then, label %if.end

if.then:                                          ; preds = %land.lhs.true
  %2 = load i8, ptr %c.addr, align 1
  %conv3 = sext i8 %2 to i32
  %sub = sub nsw i32 %conv3, 32
  %conv4 = trunc i32 %sub to i8
  store i8 %conv4, ptr %c.addr, align 1
  br label %if.end

if.end:                                           ; preds = %if.then, %land.lhs.true, %entry
  %3 = load i8, ptr %c.addr, align 1
  %conv5 = sext i8 %3 to i32
  %cmp6 = icmp slt i32 %conv5, 48
  br i1 %cmp6, label %if.then15, label %lor.lhs.false

lor.lhs.false:                                    ; preds = %if.end
  %4 = load i8, ptr %c.addr, align 1
  %conv7 = sext i8 %4 to i32
  %cmp8 = icmp sgt i32 %conv7, 57
  br i1 %cmp8, label %land.lhs.true9, label %if.end16

land.lhs.true9:                                   ; preds = %lor.lhs.false
  %5 = load i8, ptr %c.addr, align 1
  %conv10 = sext i8 %5 to i32
  %cmp11 = icmp slt i32 %conv10, 65
  br i1 %cmp11, label %if.then15, label %lor.lhs.false12

lor.lhs.false12:                                  ; preds = %land.lhs.true9
  %6 = load i8, ptr %c.addr, align 1
  %conv13 = sext i8 %6 to i32
  %cmp14 = icmp sgt i32 %conv13, 70
  br i1 %cmp14, label %if.then15, label %if.end16

if.then15:                                        ; preds = %lor.lhs.false12, %land.lhs.true9, %if.end
  store i32 -1, ptr %retval, align 4
  br label %return

if.end16:                                         ; preds = %lor.lhs.false12, %lor.lhs.false
  %7 = load i8, ptr %c.addr, align 1
  %conv17 = sext i8 %7 to i32
  %cmp18 = icmp sle i32 %conv17, 57
  br i1 %cmp18, label %if.then19, label %if.end22

if.then19:                                        ; preds = %if.end16
  %8 = load i8, ptr %c.addr, align 1
  %conv20 = sext i8 %8 to i32
  %sub21 = sub nsw i32 %conv20, 48
  store i32 %sub21, ptr %retval, align 4
  br label %return

if.end22:                                         ; preds = %if.end16
  %9 = load i8, ptr %c.addr, align 1
  %conv23 = sext i8 %9 to i32
  %sub24 = sub nsw i32 %conv23, 65
  %add = add nsw i32 %sub24, 10
  store i32 %add, ptr %retval, align 4
  br label %return

return:                                           ; preds = %if.end22, %if.then19, %if.then15
  %10 = load i32, ptr %retval, align 4
  ret i32 %10
}

; Function Attrs: mustprogress uwtable
define noundef zeroext i1 @_ZNK7rocksdb5Slice9DecodeHexEPNSt7__cxx1112basic_stringIcSt11char_traitsIcESaIcEEE(ptr noundef nonnull align 8 dereferenceable(16) %this, ptr noundef %result) #0 align 2 {
entry:
  %retval = alloca i1, align 1
  %this.addr = alloca ptr, align 8
  %result.addr = alloca ptr, align 8
  %len = alloca i64, align 8
  %i = alloca i64, align 8
  %h1 = alloca i32, align 4
  %h2 = alloca i32, align 4
  store ptr %this, ptr %this.addr, align 8
  store ptr %result, ptr %result.addr, align 8
  %this1 = load ptr, ptr %this.addr, align 8
  %size_ = getelementptr inbounds %"class.rocksdb::Slice", ptr %this1, i32 0, i32 1
  %0 = load i64, ptr %size_, align 8
  store i64 %0, ptr %len, align 8
  %1 = load i64, ptr %len, align 8
  %rem = urem i64 %1, 2
  %tobool = icmp ne i64 %rem, 0
  br i1 %tobool, label %if.then, label %if.end

if.then:                                          ; preds = %entry
  store i1 false, ptr %retval, align 1
  br label %return

if.end:                                           ; preds = %entry
  %2 = load ptr, ptr %result.addr, align 8
  %tobool2 = icmp ne ptr %2, null
  br i1 %tobool2, label %if.end4, label %if.then3

if.then3:                                         ; preds = %if.end
  store i1 false, ptr %retval, align 1
  br label %return

if.end4:                                          ; preds = %if.end
  %3 = load ptr, ptr %result.addr, align 8
  call void @_ZNSt7__cxx1112basic_stringIcSt11char_traitsIcESaIcEE5clearEv(ptr noundef nonnull align 8 dereferenceable(32) %3) #14
  %4 = load ptr, ptr %result.addr, align 8
  %5 = load i64, ptr %len, align 8
  %div = udiv i64 %5, 2
  call void @_ZNSt7__cxx1112basic_stringIcSt11char_traitsIcESaIcEE7reserveEm(ptr noundef nonnull align 8 dereferenceable(32) %4, i64 noundef %div)
  store i64 0, ptr %i, align 8
  br label %for.cond

for.cond:                                         ; preds = %if.end14, %if.end4
  %6 = load i64, ptr %i, align 8
  %7 = load i64, ptr %len, align 8
  %cmp = icmp ult i64 %6, %7
  br i1 %cmp, label %for.body, label %for.end

for.body:                                         ; preds = %for.cond
  %data_ = getelementptr inbounds %"class.rocksdb::Slice", ptr %this1, i32 0, i32 0
  %8 = load ptr, ptr %data_, align 8
  %9 = load i64, ptr %i, align 8
  %inc = add i64 %9, 1
  store i64 %inc, ptr %i, align 8
  %arrayidx = getelementptr inbounds i8, ptr %8, i64 %9
  %10 = load i8, ptr %arrayidx, align 1
  %call = call noundef i32 @_ZN7rocksdb7fromHexEc(i8 noundef signext %10)
  store i32 %call, ptr %h1, align 4
  %11 = load i32, ptr %h1, align 4
  %cmp5 = icmp slt i32 %11, 0
  br i1 %cmp5, label %if.then6, label %if.end7

if.then6:                                         ; preds = %for.body
  store i1 false, ptr %retval, align 1
  br label %return

if.end7:                                          ; preds = %for.body
  %data_8 = getelementptr inbounds %"class.rocksdb::Slice", ptr %this1, i32 0, i32 0
  %12 = load ptr, ptr %data_8, align 8
  %13 = load i64, ptr %i, align 8
  %inc9 = add i64 %13, 1
  store i64 %inc9, ptr %i, align 8
  %arrayidx10 = getelementptr inbounds i8, ptr %12, i64 %13
  %14 = load i8, ptr %arrayidx10, align 1
  %call11 = call noundef i32 @_ZN7rocksdb7fromHexEc(i8 noundef signext %14)
  store i32 %call11, ptr %h2, align 4
  %15 = load i32, ptr %h2, align 4
  %cmp12 = icmp slt i32 %15, 0
  br i1 %cmp12, label %if.then13, label %if.end14

if.then13:                                        ; preds = %if.end7
  store i1 false, ptr %retval, align 1
  br label %return

if.end14:                                         ; preds = %if.end7
  %16 = load ptr, ptr %result.addr, align 8
  %17 = load i32, ptr %h1, align 4
  %shl = shl i32 %17, 4
  %18 = load i32, ptr %h2, align 4
  %or = or i32 %shl, %18
  %conv = trunc i32 %or to i8
  call void @_ZNSt7__cxx1112basic_stringIcSt11char_traitsIcESaIcEE9push_backEc(ptr noundef nonnull align 8 dereferenceable(32) %16, i8 noundef signext %conv)
  br label %for.cond, !llvm.loop !8

for.end:                                          ; preds = %for.cond
  store i1 true, ptr %retval, align 1
  br label %return

return:                                           ; preds = %for.end, %if.then13, %if.then6, %if.then3, %if.then
  %19 = load i1, ptr %retval, align 1
  ret i1 %19
}