; Function Attrs: mustprogress uwtable
define noundef zeroext i1 @_ZNK7rocksdb5Slice9DecodeHexEPNSt7__cxx1112basic_stringIcSt11char_traitsIcESaIcEEE(ptr nocapture noundef nonnull readonly align 8 dereferenceable(16) %this, ptr noundef %result) local_unnamed_addr #0 align 2 {
entry:
  %size_ = getelementptr inbounds i8, ptr %this, i64 8
  %0 = load i64, ptr %size_, align 8
  %rem = and i64 %0, 1
  %tobool.not = icmp ne i64 %rem, 0
  %tobool2.not = icmp eq ptr %result, null
  %or.cond = or i1 %tobool2.not, %tobool.not
  br i1 %or.cond, label %return, label %if.end4

if.end4:                                          ; preds = %entry
  tail call void @_ZNSt7__cxx1112basic_stringIcSt11char_traitsIcESaIcEE5clearEv(ptr noundef nonnull align 8 dereferenceable(32) %result) #21
  %div10 = lshr exact i64 %0, 1
  tail call void @_ZNSt7__cxx1112basic_stringIcSt11char_traitsIcESaIcEE7reserveEm(ptr noundef nonnull align 8 dereferenceable(32) %result, i64 noundef %div10)
  %cmp32.not = icmp eq i64 %0, 0
  br i1 %cmp32.not, label %return, label %for.body

for.body:                                         ; preds = %if.end4, %if.end14
  %i.033 = phi i64 [ %inc9, %if.end14 ], [ 0, %if.end4 ]
  %1 = load ptr, ptr %this, align 8
  %arrayidx = getelementptr inbounds i8, ptr %1, i64 %i.033
  %2 = load i8, ptr %arrayidx, align 1
  %3 = add i8 %2, -97
  %or.cond.i = icmp ult i8 %3, 6
  %sub.i = add nsw i8 %2, -32
  %spec.select.i = select i1 %or.cond.i, i8 %sub.i, i8 %2
  %conv5.i = sext i8 %spec.select.i to i32
  %cmp6.i = icmp slt i8 %spec.select.i, 48
  br i1 %cmp6.i, label %return, label %lor.lhs.false.i

lor.lhs.false.i:                                  ; preds = %for.body
  %cmp8.i = icmp ugt i8 %spec.select.i, 57
  %4 = add nsw i8 %spec.select.i, -71
  %or.cond1.i = icmp ult i8 %4, -6
  %or.cond11.i = select i1 %cmp8.i, i1 %or.cond1.i, i1 false
  br i1 %or.cond11.i, label %return, label %if.end16.i

if.end16.i:                                       ; preds = %lor.lhs.false.i
  %cmp18.i = icmp ult i8 %spec.select.i, 58
  %retval.0.i.v = select i1 %cmp18.i, i32 -48, i32 -55
  %retval.0.i = add nsw i32 %retval.0.i.v, %conv5.i
  %cmp5 = icmp slt i32 %retval.0.i, 0
  br i1 %cmp5, label %return, label %if.end7

if.end7:                                          ; preds = %if.end16.i
  %inc = or disjoint i64 %i.033, 1
  %arrayidx10 = getelementptr inbounds i8, ptr %1, i64 %inc
  %5 = load i8, ptr %arrayidx10, align 1
  %6 = add i8 %5, -97
  %or.cond.i11 = icmp ult i8 %6, 6
  %sub.i12 = add nsw i8 %5, -32
  %spec.select.i13 = select i1 %or.cond.i11, i8 %sub.i12, i8 %5
  %conv5.i14 = sext i8 %spec.select.i13 to i32
  %cmp6.i15 = icmp slt i8 %spec.select.i13, 48
  br i1 %cmp6.i15, label %return, label %lor.lhs.false.i16

lor.lhs.false.i16:                                ; preds = %if.end7
  %cmp8.i17 = icmp ugt i8 %spec.select.i13, 57
  %7 = add nsw i8 %spec.select.i13, -71
  %or.cond1.i18 = icmp ult i8 %7, -6
  %or.cond11.i19 = select i1 %cmp8.i17, i1 %or.cond1.i18, i1 false
  br i1 %or.cond11.i19, label %return, label %if.end16.i20

if.end16.i20:                                     ; preds = %lor.lhs.false.i16
  %cmp18.i21 = icmp ult i8 %spec.select.i13, 58
  %retval.0.i24.v = select i1 %cmp18.i21, i32 -48, i32 -55
  %retval.0.i24 = add nsw i32 %retval.0.i24.v, %conv5.i14
  %cmp12 = icmp slt i32 %retval.0.i24, 0
  br i1 %cmp12, label %return, label %if.end14

if.end14:                                         ; preds = %if.end16.i20
  %inc9 = add i64 %i.033, 2
  %shl = shl nuw nsw i32 %retval.0.i, 4
  %or = or i32 %retval.0.i24, %shl
  %conv = trunc i32 %or to i8
  tail call void @_ZNSt7__cxx1112basic_stringIcSt11char_traitsIcESaIcEE9push_backEc(ptr noundef nonnull align 8 dereferenceable(32) %result, i8 noundef signext %conv)
  %cmp = icmp ult i64 %inc9, %0
  br i1 %cmp, label %for.body, label %return, !llvm.loop !21

return:                                           ; preds = %if.end16.i, %if.end16.i20, %if.end14, %lor.lhs.false.i, %for.body, %lor.lhs.false.i16, %if.end7, %if.end4, %entry
  %retval.0 = phi i1 [ false, %entry ], [ true, %if.end4 ], [ false, %if.end16.i ], [ false, %if.end16.i20 ], [ true, %if.end14 ], [ false, %lor.lhs.false.i ], [ false, %for.body ], [ false, %lor.lhs.false.i16 ], [ false, %if.end7 ]
  ret i1 %retval.0
}